target datalayout = "e-m:e-p270:32:32-p271:32:32-p272:64:64-i64:64-i128:128-f80:128-n8:16:32:64-S128"
target triple = "x86_64-pc-linux-gnu"

%"class.std::__cxx11::basic_string" = type { %"struct.std::__cxx11::basic_string<char>::_Alloc_hider", i64, %union.anon }
%"struct.std::__cxx11::basic_string<char>::_Alloc_hider" = type { ptr }
%union.anon = type { i64, [8 x i8] }
%"class.std::allocator" = type { i8 }

@.str.8 = private unnamed_addr constant [15 x i8] c"Unknown state.\00", align 1

; Function Attrs: mustprogress uwtable
define noundef signext i8 @_ZN10open_spiel16nine_mens_morris11StateToCharENS0_9CellStateE(i32 noundef %0) #4 personality ptr @__gxx_personality_v0 {
  %2 = alloca i8, align 1
  %3 = alloca i32, align 4
  %4 = alloca %"class.std::__cxx11::basic_string", align 8
  %5 = alloca %"class.std::allocator", align 1
  %6 = alloca ptr, align 8
  %7 = alloca i32, align 4
  store i32 %0, ptr %3, align 4
  %8 = load i32, ptr %3, align 4
  switch i32 %8, label %12 [
    i32 0, label %9
    i32 1, label %10
    i32 2, label %11
  ]

9:                                                ; preds = %1
  store i8 46, ptr %2, align 1
  br label %24

10:                                               ; preds = %1
  store i8 87, ptr %2, align 1
  br label %24

11:                                               ; preds = %1
  store i8 66, ptr %2, align 1
  br label %24

12:                                               ; preds = %1
  call void @_ZNSaIcEC1Ev(ptr noundef nonnull align 1 dereferenceable(1) %5) #3
  invoke void @_ZNSt7__cxx1112basic_stringIcSt11char_traitsIcESaIcEEC2IS3_EEPKcRKS3_(ptr noundef nonnull align 8 dereferenceable(32) %4, ptr noundef @.str.8, ptr noundef nonnull align 1 dereferenceable(1) %5)
          to label %13 unwind label %15

13:                                               ; preds = %12
  invoke void @_ZN10open_spiel15SpielFatalErrorERKNSt7__cxx1112basic_stringIcSt11char_traitsIcESaIcEEE(ptr noundef nonnull align 8 dereferenceable(32) %4) #16
          to label %14 unwind label %19

14:                                               ; preds = %13
  unreachable

15:                                               ; preds = %12
  %16 = landingpad { ptr, i32 }
          cleanup
  %17 = extractvalue { ptr, i32 } %16, 0
  store ptr %17, ptr %6, align 8
  %18 = extractvalue { ptr, i32 } %16, 1
  store i32 %18, ptr %7, align 4
  br label %23

19:                                               ; preds = %13
  %20 = landingpad { ptr, i32 }
          cleanup
  %21 = extractvalue { ptr, i32 } %20, 0
  store ptr %21, ptr %6, align 8
  %22 = extractvalue { ptr, i32 } %20, 1
  store i32 %22, ptr %7, align 4
  call void @_ZNSt7__cxx1112basic_stringIcSt11char_traitsIcESaIcEED1Ev(ptr noundef nonnull align 8 dereferenceable(32) %4) #3
  br label %23

23:                                               ; preds = %19, %15
  call void @_ZNSaIcED1Ev(ptr noundef nonnull align 1 dereferenceable(1) %5) #3
  br label %26

24:                                               ; preds = %11, %10, %9
  %25 = load i8, ptr %2, align 1
  ret i8 %25

26:                                               ; preds = %23
  %27 = load ptr, ptr %6, align 8
  %28 = load i32, ptr %7, align 4
  %29 = insertvalue { ptr, i32 } poison, ptr %27, 0
  %30 = insertvalue { ptr, i32 } %29, i32 %28, 1
  resume { ptr, i32 } %30
}